; Function Attrs: nounwind sspstrong uwtable
define internal i64 @memory_view_extract_item_members(i64 %0, i64 noundef %1, i64 noundef %2) #0 {
  %4 = alloca i64, align 8
  %5 = alloca i64, align 8
  %6 = alloca ptr, align 8
  %7 = alloca i64, align 8
  %8 = alloca ptr, align 8
  store i64 %1, ptr %4, align 8, !tbaa !6
  store i64 %2, ptr %5, align 8, !tbaa !6
  %9 = call i64 @rb_string_value(ptr noundef nonnull %4) #9
  %10 = call i64 @rb_string_value(ptr noundef nonnull %5) #9
  call void @llvm.lifetime.start.p0(i64 8, ptr nonnull %6) #9
  call void @llvm.lifetime.start.p0(i64 8, ptr nonnull %7) #9
  call void @llvm.lifetime.start.p0(i64 8, ptr nonnull %8) #9
  store ptr null, ptr %8, align 8, !tbaa !10
  %11 = load i64, ptr %5, align 8, !tbaa !6
  %12 = inttoptr i64 %11 to ptr
  %13 = load i64, ptr %12, align 8, !tbaa !39, !noalias !46
  %14 = and i64 %13, 8192
  %.not.i.i = icmp eq i64 %14, 0
  %15 = getelementptr inbounds nuw i8, ptr %12, i64 24
  br i1 %.not.i.i, label %RSTRING_PTR.exit, label %16

16:                                               ; preds = %3
  %.sroa.2.0.copyload.i = load ptr, ptr %15, align 8
  br label %RSTRING_PTR.exit

RSTRING_PTR.exit:                                 ; preds = %3, %16
  %.sroa.2.0.i = phi ptr [ %.sroa.2.0.copyload.i, %16 ], [ %15, %3 ]
  %17 = call i64 @rb_memory_view_parse_item_format(ptr noundef %.sroa.2.0.i, ptr noundef nonnull %6, ptr noundef nonnull %7, ptr noundef nonnull %8) #9
  %18 = load ptr, ptr %8, align 8, !tbaa !10
  %.not = icmp eq ptr %18, null
  br i1 %.not, label %21, label %19

19:                                               ; preds = %RSTRING_PTR.exit
  %20 = load i64, ptr @rb_eArgError, align 8, !tbaa !6
  call void (i64, ptr, ...) @rb_raise(i64 noundef %20, ptr noundef nonnull @.str.41) #13
  unreachable

21:                                               ; preds = %RSTRING_PTR.exit
  %22 = load i64, ptr %4, align 8, !tbaa !6
  %23 = inttoptr i64 %22 to ptr
  %24 = load i64, ptr %23, align 8, !tbaa !39, !noalias !49
  %25 = and i64 %24, 8192
  %.not.i.i1 = icmp eq i64 %25, 0
  %26 = getelementptr inbounds nuw i8, ptr %23, i64 24
  br i1 %.not.i.i1, label %RSTRING_PTR.exit4, label %27

27:                                               ; preds = %21
  %.sroa.2.0.copyload.i2 = load ptr, ptr %26, align 8
  br label %RSTRING_PTR.exit4

RSTRING_PTR.exit4:                                ; preds = %21, %27
  %.sroa.2.0.i3 = phi ptr [ %.sroa.2.0.copyload.i2, %27 ], [ %26, %21 ]
  %28 = load ptr, ptr %6, align 8, !tbaa !13
  %29 = load i64, ptr %7, align 8, !tbaa !6
  %30 = call i64 @rb_memory_view_extract_item_members(ptr noundef %.sroa.2.0.i3, ptr noundef %28, i64 noundef %29) #9
  %31 = load ptr, ptr %6, align 8, !tbaa !13
  call void @ruby_xfree(ptr noundef %31) #9
  call void @llvm.lifetime.end.p0(i64 8, ptr nonnull %8) #9
  call void @llvm.lifetime.end.p0(i64 8, ptr nonnull %7) #9
  call void @llvm.lifetime.end.p0(i64 8, ptr nonnull %6) #9
  ret i64 %30
}